target datalayout = "e-m:e-p270:32:32-p271:32:32-p272:64:64-i64:64-i128:128-f80:128-n8:16:32:64-S128"
target triple = "x86_64-pc-linux-gnu"

; Function Attrs: nounwind sspstrong uwtable
define internal i64 @enum_each_with_object(i64 noundef %0, i64 noundef %1) #0 {
  %3 = alloca i64, align 8
  %4 = alloca i64, align 8
  %5 = alloca i64, align 8
  %6 = alloca i64, align 8
  store i64 %0, ptr %4, align 8, !tbaa !14
  store i64 %1, ptr %5, align 8, !tbaa !14
  br label %7

7:                                                ; preds = %2
  %8 = call i32 @rb_block_given_p()
  %9 = icmp ne i32 %8, 0
  br i1 %9, label %16, label %10

10:                                               ; preds = %7
  %11 = load i64, ptr %4, align 8, !tbaa !14
  %12 = call i64 @rb_frame_this_func()
  %13 = call i64 @rb_id2sym(i64 noundef %12)
  store i64 %13, ptr %6, align 8, !tbaa !14
  %14 = load i64, ptr %6, align 8, !tbaa !14
  %15 = call i64 @rb_enumeratorize_with_size(i64 noundef %11, i64 noundef %14, i32 noundef 1, ptr noundef %5, ptr noundef @enum_size)
  store i64 %15, ptr %3, align 8
  br label %22

16:                                               ; preds = %7
  br label %17

17:                                               ; preds = %16
  %18 = load i64, ptr %4, align 8, !tbaa !14
  %19 = load i64, ptr %5, align 8, !tbaa !14
  %20 = call i64 @rb_block_call(i64 noundef %18, i64 noundef 3073, i32 noundef 0, ptr noundef null, ptr noundef @each_with_object_i, i64 noundef %19)
  %21 = load i64, ptr %5, align 8, !tbaa !14
  store i64 %21, ptr %3, align 8
  br label %22

22:                                               ; preds = %17, %10
  %23 = load i64, ptr %3, align 8
  ret i64 %23
}