; Function Attrs: nounwind sspstrong uwtable
define internal i64 @enum_each_with_object(i64 noundef %0, i64 noundef %1) #0 {
  %3 = alloca i64, align 8
  store i64 %1, ptr %3, align 8, !tbaa !7
  %4 = tail call i32 @rb_block_given_p() #14
  %.not = icmp eq i32 %4, 0
  br i1 %.not, label %5, label %9

5:                                                ; preds = %2
  %6 = tail call i64 @rb_frame_this_func() #14
  %7 = tail call i64 @rb_id2sym(i64 noundef %6) #14
  %8 = call i64 @rb_enumeratorize_with_size(i64 noundef %0, i64 noundef %7, i32 noundef 1, ptr noundef nonnull %3, ptr noundef nonnull @enum_size) #14
  br label %11

9:                                                ; preds = %2
  %10 = tail call i64 @rb_block_call(i64 noundef %0, i64 noundef 3073, i32 noundef 0, ptr noundef null, ptr noundef nonnull @each_with_object_i, i64 noundef %1) #14
  br label %11

11:                                               ; preds = %9, %5
  %.0 = phi i64 [ %1, %9 ], [ %8, %5 ]
  ret i64 %.0
}